; Function Attrs: mustprogress uwtable
define dso_local noundef zeroext i1 @_ZNK5Block17from_tail_to_headEv(ptr nocapture noundef nonnull readonly align 8 dereferenceable(192) %0) local_unnamed_addr #3 align 2 {
  %2 = getelementptr inbounds i8, ptr %0, i64 152
  %3 = load i8, ptr %2, align 8
  %4 = and i8 %3, 1
  %.not = icmp eq i8 %4, 0
  br i1 %.not, label %24, label %5

5:                                                ; preds = %1
  %6 = getelementptr inbounds i8, ptr %0, i64 32
  %7 = getelementptr inbounds i8, ptr %0, i64 40
  %8 = load ptr, ptr %7, align 8
  %9 = load ptr, ptr %6, align 8
  %.not3 = icmp eq ptr %8, %9
  br i1 %.not3, label %24, label %.lr.ph.preheader.i

.lr.ph.preheader.i:                               ; preds = %5
  %10 = ptrtoint ptr %9 to i64
  %11 = ptrtoint ptr %8 to i64
  %12 = sub i64 %11, %10
  %13 = ashr exact i64 %12, 3
  %umax.i = tail call i64 @llvm.umax.i64(i64 %13, i64 1)
  br label %.lr.ph.i

.lr.ph.i:                                         ; preds = %.lr.ph.i, %.lr.ph.preheader.i
  %.06.i = phi i64 [ 0, %.lr.ph.preheader.i ], [ %19, %.lr.ph.i ]
  %14 = getelementptr inbounds ptr, ptr %9, i64 %.06.i
  %15 = load ptr, ptr %14, align 8
  %16 = getelementptr inbounds i8, ptr %15, i64 8
  %17 = load i32, ptr %16, align 8
  %18 = icmp eq i32 %17, 5
  %19 = add nuw i64 %.06.i, 1
  %exitcond.not.i = icmp eq i64 %19, %umax.i
  %or.cond.i = select i1 %18, i1 true, i1 %exitcond.not.i
  br i1 %or.cond.i, label %_ZNK5Block12get_last_stmEv.exit, label %.lr.ph.i, !llvm.loop !11

_ZNK5Block12get_last_stmEv.exit:                  ; preds = %.lr.ph.i
  %20 = load ptr, ptr %15, align 8
  %21 = getelementptr inbounds i8, ptr %20, i64 56
  %22 = load ptr, ptr %21, align 8
  %23 = tail call noundef zeroext i1 %22(ptr noundef nonnull align 8 dereferenceable(32) %15)
  %not. = xor i1 %23, true
  br label %24

24:                                               ; preds = %1, %5, %_ZNK5Block12get_last_stmEv.exit
  %.0 = phi i1 [ %not., %_ZNK5Block12get_last_stmEv.exit ], [ false, %5 ], [ false, %1 ]
  ret i1 %.0
}